; Function Attrs: nounwind uwtable
define void @Ssw_ManCollectPos_rec(ptr noundef readonly captures(none) %0, ptr noundef captures(none) %1, ptr noundef captures(none) %2) local_unnamed_addr #2 {
  %4 = getelementptr inbounds nuw i8, ptr %1, i64 24
  %5 = load i64, ptr %4, align 8
  %6 = and i64 %5, 32
  %.not = icmp eq i64 %6, 0
  br i1 %.not, label %7, label %.critedge

7:                                                ; preds = %3
  %8 = or disjoint i64 %5, 32
  store i64 %8, ptr %4, align 8
  %9 = getelementptr inbounds nuw i8, ptr %1, i64 36
  %10 = load i32, ptr %9, align 4, !tbaa !35
  %11 = getelementptr inbounds nuw i8, ptr %0, i64 164
  %12 = load i32, ptr %11, align 4, !tbaa !45
  %13 = icmp sgt i32 %10, %12
  br i1 %13, label %.critedge, label %14

14:                                               ; preds = %7
  %15 = and i64 %5, 7
  %.not33 = icmp eq i64 %15, 3
  br i1 %.not33, label %18, label %.preheader

.preheader:                                       ; preds = %14
  %16 = and i64 %5, 4294967232
  %.not36 = icmp eq i64 %16, 0
  br i1 %.not36, label %.critedge, label %.lr.ph

.lr.ph:                                           ; preds = %.preheader
  %17 = getelementptr inbounds nuw i8, ptr %0, i64 24
  br label %59

18:                                               ; preds = %14
  %.val26 = load i32, ptr %1, align 8, !tbaa !46
  %19 = getelementptr inbounds nuw i8, ptr %0, i64 24
  %20 = load ptr, ptr %19, align 8, !tbaa !3
  %21 = getelementptr i8, ptr %20, i64 140
  %.val28 = load i32, ptr %21, align 4, !tbaa !47
  %22 = getelementptr inbounds nuw i8, ptr %0, i64 16
  %23 = load ptr, ptr %22, align 8, !tbaa !28
  %24 = getelementptr i8, ptr %23, i64 104
  %.val29 = load i32, ptr %24, align 8, !tbaa !48
  %25 = sub nsw i32 %.val28, %.val29
  %.not25 = icmp slt i32 %.val26, %25
  br i1 %.not25, label %26, label %.critedge

26:                                               ; preds = %18
  %27 = sdiv i32 %.val26, 2
  %28 = getelementptr inbounds nuw i8, ptr %2, i64 4
  %29 = load i32, ptr %28, align 4, !tbaa !49
  %30 = load i32, ptr %2, align 8, !tbaa !51
  %31 = icmp eq i32 %29, %30
  br i1 %31, label %32, label %.Vec_IntGrow.exit10_crit_edge.i

.Vec_IntGrow.exit10_crit_edge.i:                  ; preds = %26
  %.phi.trans.insert.i = getelementptr inbounds nuw i8, ptr %2, i64 8
  %.pre.i = load ptr, ptr %.phi.trans.insert.i, align 8, !tbaa !52
  br label %Vec_IntPush.exit

32:                                               ; preds = %26
  %33 = icmp slt i32 %29, 16
  br i1 %33, label %34, label %42

34:                                               ; preds = %32
  %35 = getelementptr inbounds nuw i8, ptr %2, i64 8
  %36 = load ptr, ptr %35, align 8, !tbaa !52
  %.not9.i.i = icmp eq ptr %36, null
  br i1 %.not9.i.i, label %39, label %37

37:                                               ; preds = %34
  %38 = tail call dereferenceable_or_null(64) ptr @realloc(ptr noundef nonnull %36, i64 noundef 64) #8
  br label %Vec_IntGrow.exit.i

39:                                               ; preds = %34
  %40 = tail call noalias dereferenceable_or_null(64) ptr @malloc(i64 noundef 64) #9
  br label %Vec_IntGrow.exit.i

Vec_IntGrow.exit.i:                               ; preds = %39, %37
  %41 = phi ptr [ %38, %37 ], [ %40, %39 ]
  store ptr %41, ptr %35, align 8, !tbaa !52
  store i32 16, ptr %2, align 8, !tbaa !51
  br label %Vec_IntPush.exit

42:                                               ; preds = %32
  %43 = shl nuw nsw i32 %29, 1
  %44 = getelementptr inbounds nuw i8, ptr %2, i64 8
  %45 = load ptr, ptr %44, align 8, !tbaa !52
  %.not9.i9.i = icmp eq ptr %45, null
  %46 = zext nneg i32 %43 to i64
  %47 = shl nuw nsw i64 %46, 2
  br i1 %.not9.i9.i, label %50, label %48

48:                                               ; preds = %42
  %49 = tail call ptr @realloc(ptr noundef nonnull %45, i64 noundef %47) #8
  br label %52

50:                                               ; preds = %42
  %51 = tail call noalias ptr @malloc(i64 noundef %47) #9
  br label %52

52:                                               ; preds = %50, %48
  %53 = phi ptr [ %49, %48 ], [ %51, %50 ]
  store ptr %53, ptr %44, align 8, !tbaa !52
  store i32 %43, ptr %2, align 8, !tbaa !51
  br label %Vec_IntPush.exit

Vec_IntPush.exit:                                 ; preds = %.Vec_IntGrow.exit10_crit_edge.i, %Vec_IntGrow.exit.i, %52
  %54 = phi ptr [ %.pre.i, %.Vec_IntGrow.exit10_crit_edge.i ], [ %53, %52 ], [ %41, %Vec_IntGrow.exit.i ]
  %55 = load i32, ptr %28, align 4, !tbaa !49
  %56 = add nsw i32 %55, 1
  store i32 %56, ptr %28, align 4, !tbaa !49
  %57 = sext i32 %55 to i64
  %58 = getelementptr inbounds i32, ptr %54, i64 %57
  store i32 %27, ptr %58, align 4, !tbaa !47
  br label %.critedge

59:                                               ; preds = %.lr.ph, %Aig_ManObj.exit
  %.035 = phi i32 [ 0, %.lr.ph ], [ %82, %Aig_ManObj.exit ]
  %.02234 = phi i32 [ -1, %.lr.ph ], [ %73, %Aig_ManObj.exit ]
  %.not24 = icmp eq i32 %.035, 0
  %60 = load ptr, ptr %17, align 8, !tbaa !3
  br i1 %.not24, label %67, label %61

61:                                               ; preds = %59
  %62 = ashr i32 %.02234, 1
  %63 = mul nsw i32 %62, 5
  %64 = and i32 %.02234, 1
  %65 = add nuw nsw i32 %64, 3
  %66 = add i32 %65, %63
  br label %70

67:                                               ; preds = %59
  %68 = load i32, ptr %9, align 4, !tbaa !35
  %69 = mul nsw i32 %68, 5
  br label %70

70:                                               ; preds = %67, %61
  %.sink37 = phi i32 [ %69, %67 ], [ %66, %61 ]
  %.val31.sink.in = getelementptr i8, ptr %60, i64 176
  %.val31.sink = load ptr, ptr %.val31.sink.in, align 8, !tbaa !53
  %71 = sext i32 %.sink37 to i64
  %72 = getelementptr inbounds i32, ptr %.val31.sink, i64 %71
  %73 = load i32, ptr %72, align 4, !tbaa !47
  %74 = getelementptr i8, ptr %60, i64 32
  %.val32 = load ptr, ptr %74, align 8, !tbaa !54
  %.not.i = icmp eq ptr %.val32, null
  br i1 %.not.i, label %Aig_ManObj.exit, label %75

75:                                               ; preds = %70
  %76 = ashr i32 %73, 1
  %77 = getelementptr i8, ptr %.val32, i64 8
  %.val.i = load ptr, ptr %77, align 8, !tbaa !31
  %78 = sext i32 %76 to i64
  %79 = getelementptr inbounds ptr, ptr %.val.i, i64 %78
  %80 = load ptr, ptr %79, align 8, !tbaa !33
  br label %Aig_ManObj.exit

Aig_ManObj.exit:                                  ; preds = %70, %75
  %81 = phi ptr [ %80, %75 ], [ null, %70 ]
  tail call void @Ssw_ManCollectPos_rec(ptr noundef nonnull %0, ptr noundef %81, ptr noundef %2)
  %82 = add nuw nsw i32 %.035, 1
  %83 = load i64, ptr %4, align 8
  %84 = trunc i64 %83 to i32
  %85 = lshr i32 %84, 6
  %86 = icmp samesign ult i32 %82, %85
  br i1 %86, label %59, label %.critedge, !llvm.loop !55

.critedge:                                        ; preds = %Aig_ManObj.exit, %.preheader, %18, %7, %3, %Vec_IntPush.exit
  ret void
}